Certificate:
    Data:
        Version: 3 (0x2)
        Serial Number: 2 (0x2)
    Signature Algorithm: sha256WithRSAEncryption
        Issuer: C=GB, ST=Derbyshire, O=Mosquitto Project, OU=Testing, CN=Signing CA
        Validity
            Not Before: Jan  5 19:22:20 2019 GMT
            Not After : Jan  4 19:22:20 2024 GMT
        Subject: C=GB, ST=Nottinghamshire, L=Nottingham, O=Server, OU=Production, CN=mqttclient
        Subject Public Key Info:
            Public Key Algorithm: rsaEncryption
                Public-Key: (1024 bit)
                Modulus:
                    00:c6:31:09:e6:a3:9a:93:38:5c:36:be:85:af:da:
                    d4:46:99:c0:e9:05:a2:54:de:44:8b:71:be:a7:0b:
                    7f:00:6c:e7:c9:96:3d:84:cb:67:cd:59:70:71:a2:
                    cd:c4:1a:e6:5e:a7:0e:73:13:15:41:4a:83:a4:53:
                    e1:39:c9:5c:8f:15:f5:4f:b0:8b:0b:90:f4:ca:a6:
                    2f:2b:e5:0a:39:e8:77:ef:7f:21:09:43:b0:55:72:
                    2f:1d:12:66:e0:01:4c:38:fc:f9:44:fb:49:37:b0:
                    c6:39:f5:3f:b2:b4:b0:ca:e1:60:6b:ec:78:ee:58:
                    6f:b7:8e:93:53:79:ce:6d:6d
                Exponent: 65537 (0x10001)
        X509v3 extensions:
            X509v3 Basic Constraints: 
                CA:FALSE
            Netscape Comment: 
                OpenSSL Generated Certificate
            X509v3 Subject Key Identifier: 
                BC:59:F7:B2:7F:63:AA:D6:30:C4:3C:F9:93:87:69:42:39:91:FA:B9
            X509v3 Authority Key Identifier: 
                keyid:B2:BB:FC:9D:EC:E1:6B:57:C3:97:DC:38:48:4F:61:79:E8:FF:A0:74

    Signature Algorithm: sha256WithRSAEncryption
         8b:f2:ff:31:a3:2c:c7:a8:c2:0f:97:98:5b:95:11:bb:04:b3:
         03:05:4a:ff:36:64:7c:36:5a:aa:4f:f8:ae:49:49:72:86:57:
         e6:46:11:c4:70:8b:44:5f:4f:b9:f5:a3:da:b2:db:a8:1f:90:
         52:cc:33:f5:3b:37:35:5b:4e:35:d1:2a:b4:59:da:81:06:90:
         77:21:87:72:d0:06:aa:ea:83:ca:3a:56:63:05:36:ff:2c:9f:
         f4:cf:a3:a5:0b:ce:a6:ca:01:de:fe:bb:94:35:b3:be:4b:16:
         dd:a1:04:cc:5e:26:59:65:de:19:4f:af:45:78:5f:7f:6f:58:
         66:6b
-----BEGIN CERTIFICATE-----
MIICzTCCAjagAwIBAgIBAjANBgkqhkiG9w0BAQsFADBlMQswCQYDVQQGEwJHQjET
MBEGA1UECAwKRGVyYnlzaGlyZTEaMBgGA1UECgwRTW9zcXVpdHRvIFByb2plY3Qx
EDAOBgNVBAsMB1Rlc3RpbmcxEzARBgNVBAMMClNpZ25pbmcgQ0EwHhcNMTkwMTA1
MTkyMjIwWhcNMjQwMTA0MTkyMjIwWjB3MQswCQYDVQQGEwJHQjEYMBYGA1UECAwP
Tm90dGluZ2hhbXNoaXJlMRMwEQYDVQQHDApOb3R0aW5naGFtMQ8wDQYDVQQKDAZT
ZXJ2ZXIxEzARBgNVBAsMClByb2R1Y3Rpb24xEzARBgNVBAMMCm1xdHRjbGllbnQw
gZ8wDQYJKoZIhvcNAQEBBQADgY0AMIGJAoGBAMYxCeajmpM4XDa+ha/a1EaZwOkF
olTeRItxvqcLfwBs58mWPYTLZ81ZcHGizcQa5l6nDnMTFUFKg6RT4TnJXI8V9U+w
iwuQ9MqmLyvlCjnod+9/IQlDsFVyLx0SZuABTDj8+UT7STewxjn1P7K0sMrhYGvs
eO5Yb7eOk1N5zm1tAgMBAAGjezB5MAkGA1UdEwQCMAAwLAYJYIZIAYb4QgENBB8W
HU9wZW5TU0wgR2VuZXJhdGVkIENlcnRpZmljYXRlMB0GA1UdDgQWBBS8Wfeyf2Oq
1jDEPPmTh2lCOZH6uTAfBgNVHSMEGDAWgBSyu/yd7OFrV8OX3DhIT2F56P+gdDAN
BgkqhkiG9w0BAQsFAAOBgQCL8v8xoyzHqMIPl5hblRG7BLMDBUr/NmR8NlqqT/iu
SUlyhlfmRhHEcItEX0+59aPastuoH5BSzDP1Ozc1W0410Sq0WdqBBpB3IYdy0Aaq
6oPKOlZjBTb/LJ/0z6OlC86mygHe/ruUNbO+SxbdoQTMXiZZZd4ZT69FeF9/b1hm
aw==
-----END CERTIFICATE-----
